#include <math.h>
#include <stdio.h>
#include <stdlib.h>
#include <string.h>

int main(){
	int k,n[100];
	double sz[100][100],sum1[100],sum2[100],a[100],s[100];
	int i=0,j=0,h=0;
	scanf("%d",&k);
	for(i=0;i<k;i++){
	    sum1[i]=0;
		sum2[i]=0;
		a[i]=0;
		s[i]=0;
	}
	for(i=0;i<k;i++){
		scanf("%d",&n[i]);
	
		  for(j=0;j<n[i];j++){
			  scanf("%lf",&sz[h][j]);
		  }
		  h++;
		  }
		  
		for(i=0;i<k;i++){
			for(j=0;j<n[i];j++){
				sum1[i]+=sz[i][j];
			}
			a[i]=(double)sum1[i]/n[i];

		}
		for(i=0;i<k;i++){
			for(j=0;j<n[i];j++){
				sum2[i]+=(double)pow((sz[i][j]-a[i]),2)/n[i];
			}
		s[i]=sqrt(sum2[i]);
		}
		for(i=0;i<k;i++){
			printf("%.5f\n",s[i]);
		}
		return 0;
	}


