; ModuleID = '38/658.c'
source_filename = "38/658.c"
target datalayout = "e-m:e-p270:32:32-p271:32:32-p272:64:64-i64:64-f80:128-n8:16:32:64-S128"
target triple = "x86_64-pc-linux-gnu"

@.str = private unnamed_addr constant [3 x i8] c"%d\00", align 1
@.str.1 = private unnamed_addr constant [4 x i8] c"%lf\00", align 1
@.str.2 = private unnamed_addr constant [6 x i8] c"%.5f\0A\00", align 1

; Function Attrs: noinline nounwind uwtable
define dso_local i32 @main() #0 {
  %1 = alloca i32, align 4
  %2 = alloca i32, align 4
  %3 = alloca [100 x i32], align 16
  %4 = alloca [100 x [100 x double]], align 16
  %5 = alloca [100 x double], align 16
  %6 = alloca [100 x double], align 16
  %7 = alloca [100 x double], align 16
  %8 = alloca [100 x double], align 16
  %9 = alloca i32, align 4
  %10 = alloca i32, align 4
  %11 = alloca i32, align 4
  store i32 0, i32* %1, align 4
  store i32 0, i32* %9, align 4
  store i32 0, i32* %10, align 4
  store i32 0, i32* %11, align 4
  %12 = call i32 (i8*, ...) @__isoc99_scanf(i8* getelementptr inbounds ([3 x i8], [3 x i8]* @.str, i64 0, i64 0), i32* %2)
  store i32 0, i32* %9, align 4
  br label %13

13:                                               ; preds = %30, %0
  %14 = load i32, i32* %9, align 4
  %15 = load i32, i32* %2, align 4
  %16 = icmp slt i32 %14, %15
  br i1 %16, label %17, label %33

17:                                               ; preds = %13
  %18 = load i32, i32* %9, align 4
  %19 = sext i32 %18 to i64
  %20 = getelementptr inbounds [100 x double], [100 x double]* %5, i64 0, i64 %19
  store double 0.000000e+00, double* %20, align 8
  %21 = load i32, i32* %9, align 4
  %22 = sext i32 %21 to i64
  %23 = getelementptr inbounds [100 x double], [100 x double]* %6, i64 0, i64 %22
  store double 0.000000e+00, double* %23, align 8
  %24 = load i32, i32* %9, align 4
  %25 = sext i32 %24 to i64
  %26 = getelementptr inbounds [100 x double], [100 x double]* %7, i64 0, i64 %25
  store double 0.000000e+00, double* %26, align 8
  %27 = load i32, i32* %9, align 4
  %28 = sext i32 %27 to i64
  %29 = getelementptr inbounds [100 x double], [100 x double]* %8, i64 0, i64 %28
  store double 0.000000e+00, double* %29, align 8
  br label %30

30:                                               ; preds = %17
  %31 = load i32, i32* %9, align 4
  %32 = add nsw i32 %31, 1
  store i32 %32, i32* %9, align 4
  br label %13

33:                                               ; preds = %13
  store i32 0, i32* %9, align 4
  br label %34

34:                                               ; preds = %64, %33
  %35 = load i32, i32* %9, align 4
  %36 = load i32, i32* %2, align 4
  %37 = icmp slt i32 %35, %36
  br i1 %37, label %38, label %67

38:                                               ; preds = %34
  %39 = load i32, i32* %9, align 4
  %40 = sext i32 %39 to i64
  %41 = getelementptr inbounds [100 x i32], [100 x i32]* %3, i64 0, i64 %40
  %42 = call i32 (i8*, ...) @__isoc99_scanf(i8* getelementptr inbounds ([3 x i8], [3 x i8]* @.str, i64 0, i64 0), i32* %41)
  store i32 0, i32* %10, align 4
  br label %43

43:                                               ; preds = %58, %38
  %44 = load i32, i32* %10, align 4
  %45 = load i32, i32* %9, align 4
  %46 = sext i32 %45 to i64
  %47 = getelementptr inbounds [100 x i32], [100 x i32]* %3, i64 0, i64 %46
  %48 = load i32, i32* %47, align 4
  %49 = icmp slt i32 %44, %48
  br i1 %49, label %50, label %61

50:                                               ; preds = %43
  %51 = load i32, i32* %11, align 4
  %52 = sext i32 %51 to i64
  %53 = getelementptr inbounds [100 x [100 x double]], [100 x [100 x double]]* %4, i64 0, i64 %52
  %54 = load i32, i32* %10, align 4
  %55 = sext i32 %54 to i64
  %56 = getelementptr inbounds [100 x double], [100 x double]* %53, i64 0, i64 %55
  %57 = call i32 (i8*, ...) @__isoc99_scanf(i8* getelementptr inbounds ([4 x i8], [4 x i8]* @.str.1, i64 0, i64 0), double* %56)
  br label %58

58:                                               ; preds = %50
  %59 = load i32, i32* %10, align 4
  %60 = add nsw i32 %59, 1
  store i32 %60, i32* %10, align 4
  br label %43

61:                                               ; preds = %43
  %62 = load i32, i32* %11, align 4
  %63 = add nsw i32 %62, 1
  store i32 %63, i32* %11, align 4
  br label %64

64:                                               ; preds = %61
  %65 = load i32, i32* %9, align 4
  %66 = add nsw i32 %65, 1
  store i32 %66, i32* %9, align 4
  br label %34

67:                                               ; preds = %34
  store i32 0, i32* %9, align 4
  br label %68

68:                                               ; preds = %110, %67
  %69 = load i32, i32* %9, align 4
  %70 = load i32, i32* %2, align 4
  %71 = icmp slt i32 %69, %70
  br i1 %71, label %72, label %113

72:                                               ; preds = %68
  store i32 0, i32* %10, align 4
  br label %73

73:                                               ; preds = %93, %72
  %74 = load i32, i32* %10, align 4
  %75 = load i32, i32* %9, align 4
  %76 = sext i32 %75 to i64
  %77 = getelementptr inbounds [100 x i32], [100 x i32]* %3, i64 0, i64 %76
  %78 = load i32, i32* %77, align 4
  %79 = icmp slt i32 %74, %78
  br i1 %79, label %80, label %96

80:                                               ; preds = %73
  %81 = load i32, i32* %9, align 4
  %82 = sext i32 %81 to i64
  %83 = getelementptr inbounds [100 x [100 x double]], [100 x [100 x double]]* %4, i64 0, i64 %82
  %84 = load i32, i32* %10, align 4
  %85 = sext i32 %84 to i64
  %86 = getelementptr inbounds [100 x double], [100 x double]* %83, i64 0, i64 %85
  %87 = load double, double* %86, align 8
  %88 = load i32, i32* %9, align 4
  %89 = sext i32 %88 to i64
  %90 = getelementptr inbounds [100 x double], [100 x double]* %5, i64 0, i64 %89
  %91 = load double, double* %90, align 8
  %92 = fadd double %91, %87
  store double %92, double* %90, align 8
  br label %93

93:                                               ; preds = %80
  %94 = load i32, i32* %10, align 4
  %95 = add nsw i32 %94, 1
  store i32 %95, i32* %10, align 4
  br label %73

96:                                               ; preds = %73
  %97 = load i32, i32* %9, align 4
  %98 = sext i32 %97 to i64
  %99 = getelementptr inbounds [100 x double], [100 x double]* %5, i64 0, i64 %98
  %100 = load double, double* %99, align 8
  %101 = load i32, i32* %9, align 4
  %102 = sext i32 %101 to i64
  %103 = getelementptr inbounds [100 x i32], [100 x i32]* %3, i64 0, i64 %102
  %104 = load i32, i32* %103, align 4
  %105 = sitofp i32 %104 to double
  %106 = fdiv double %100, %105
  %107 = load i32, i32* %9, align 4
  %108 = sext i32 %107 to i64
  %109 = getelementptr inbounds [100 x double], [100 x double]* %7, i64 0, i64 %108
  store double %106, double* %109, align 8
  br label %110

110:                                              ; preds = %96
  %111 = load i32, i32* %9, align 4
  %112 = add nsw i32 %111, 1
  store i32 %112, i32* %9, align 4
  br label %68

113:                                              ; preds = %68
  store i32 0, i32* %9, align 4
  br label %114

114:                                              ; preds = %163, %113
  %115 = load i32, i32* %9, align 4
  %116 = load i32, i32* %2, align 4
  %117 = icmp slt i32 %115, %116
  br i1 %117, label %118, label %166

118:                                              ; preds = %114
  store i32 0, i32* %10, align 4
  br label %119

119:                                              ; preds = %151, %118
  %120 = load i32, i32* %10, align 4
  %121 = load i32, i32* %9, align 4
  %122 = sext i32 %121 to i64
  %123 = getelementptr inbounds [100 x i32], [100 x i32]* %3, i64 0, i64 %122
  %124 = load i32, i32* %123, align 4
  %125 = icmp slt i32 %120, %124
  br i1 %125, label %126, label %154

126:                                              ; preds = %119
  %127 = load i32, i32* %9, align 4
  %128 = sext i32 %127 to i64
  %129 = getelementptr inbounds [100 x [100 x double]], [100 x [100 x double]]* %4, i64 0, i64 %128
  %130 = load i32, i32* %10, align 4
  %131 = sext i32 %130 to i64
  %132 = getelementptr inbounds [100 x double], [100 x double]* %129, i64 0, i64 %131
  %133 = load double, double* %132, align 8
  %134 = load i32, i32* %9, align 4
  %135 = sext i32 %134 to i64
  %136 = getelementptr inbounds [100 x double], [100 x double]* %7, i64 0, i64 %135
  %137 = load double, double* %136, align 8
  %138 = fsub double %133, %137
  %139 = call double @pow(double %138, double 2.000000e+00) #3
  %140 = load i32, i32* %9, align 4
  %141 = sext i32 %140 to i64
  %142 = getelementptr inbounds [100 x i32], [100 x i32]* %3, i64 0, i64 %141
  %143 = load i32, i32* %142, align 4
  %144 = sitofp i32 %143 to double
  %145 = fdiv double %139, %144
  %146 = load i32, i32* %9, align 4
  %147 = sext i32 %146 to i64
  %148 = getelementptr inbounds [100 x double], [100 x double]* %6, i64 0, i64 %147
  %149 = load double, double* %148, align 8
  %150 = fadd double %149, %145
  store double %150, double* %148, align 8
  br label %151

151:                                              ; preds = %126
  %152 = load i32, i32* %10, align 4
  %153 = add nsw i32 %152, 1
  store i32 %153, i32* %10, align 4
  br label %119

154:                                              ; preds = %119
  %155 = load i32, i32* %9, align 4
  %156 = sext i32 %155 to i64
  %157 = getelementptr inbounds [100 x double], [100 x double]* %6, i64 0, i64 %156
  %158 = load double, double* %157, align 8
  %159 = call double @sqrt(double %158) #3
  %160 = load i32, i32* %9, align 4
  %161 = sext i32 %160 to i64
  %162 = getelementptr inbounds [100 x double], [100 x double]* %8, i64 0, i64 %161
  store double %159, double* %162, align 8
  br label %163

163:                                              ; preds = %154
  %164 = load i32, i32* %9, align 4
  %165 = add nsw i32 %164, 1
  store i32 %165, i32* %9, align 4
  br label %114

166:                                              ; preds = %114
  store i32 0, i32* %9, align 4
  br label %167

167:                                              ; preds = %177, %166
  %168 = load i32, i32* %9, align 4
  %169 = load i32, i32* %2, align 4
  %170 = icmp slt i32 %168, %169
  br i1 %170, label %171, label %180

171:                                              ; preds = %167
  %172 = load i32, i32* %9, align 4
  %173 = sext i32 %172 to i64
  %174 = getelementptr inbounds [100 x double], [100 x double]* %8, i64 0, i64 %173
  %175 = load double, double* %174, align 8
  %176 = call i32 (i8*, ...) @printf(i8* getelementptr inbounds ([6 x i8], [6 x i8]* @.str.2, i64 0, i64 0), double %175)
  br label %177

177:                                              ; preds = %171
  %178 = load i32, i32* %9, align 4
  %179 = add nsw i32 %178, 1
  store i32 %179, i32* %9, align 4
  br label %167

180:                                              ; preds = %167
  ret i32 0
}

declare dso_local i32 @__isoc99_scanf(i8*, ...) #1

; Function Attrs: nounwind
declare dso_local double @pow(double, double) #2

; Function Attrs: nounwind
declare dso_local double @sqrt(double) #2

declare dso_local i32 @printf(i8*, ...) #1


!llvm.module.flags = !{!0}
!llvm.ident = !{!1}

!0 = !{i32 1, !"wchar_size", i32 4}
!1 = !{!"clang version 10.0.0-4ubuntu1 "}
